; Function Attrs: nounwind uwtable
define i32 @NCONF_dump_bio(ptr noundef %0, ptr noundef %1) local_unnamed_addr #0 {
  %3 = icmp eq ptr %0, null
  br i1 %3, label %4, label %5

4:                                                ; preds = %2
  tail call void @ERR_new() #15
  tail call void @ERR_set_debug(ptr noundef nonnull @.str.1, i32 noundef 399, ptr noundef nonnull @__func__.NCONF_dump_bio) #15
  tail call void (i32, i32, ptr, ...) @ERR_set_error(i32 noundef 14, i32 noundef 105, ptr noundef null) #15
  br label %10

5:                                                ; preds = %2
  %6 = load ptr, ptr %0, align 8, !tbaa !16
  %7 = getelementptr inbounds nuw i8, ptr %6, i64 48
  %8 = load ptr, ptr %7, align 8, !tbaa !26
  %9 = tail call i32 %8(ptr noundef nonnull %0, ptr noundef %1) #15
  br label %10

10:                                               ; preds = %5, %4
  %.0 = phi i32 [ 0, %4 ], [ %9, %5 ]
  ret i32 %.0
}